; Function Attrs: nounwind uwtable
define ptr @l_Lean_Grind_CommRing_Poly_degree___boxed(ptr noundef %0) local_unnamed_addr #1 {
  %2 = ptrtoint ptr %0 to i64
  %3 = and i64 %2, 1
  %.not.i.i = icmp eq i64 %3, 0
  br i1 %.not.i.i, label %7, label %4

4:                                                ; preds = %1
  %5 = lshr i64 %2, 1
  %6 = trunc i64 %5 to i32
  br label %lean_obj_tag.exit.i

7:                                                ; preds = %1
  %8 = getelementptr i8, ptr %0, i64 4
  %.val.i.i = load i32, ptr %8, align 4
  %9 = lshr i32 %.val.i.i, 24
  br label %lean_obj_tag.exit.i

lean_obj_tag.exit.i:                              ; preds = %7, %4
  %.0.i.i = phi i32 [ %6, %4 ], [ %9, %7 ]
  %10 = icmp eq i32 %.0.i.i, 0
  br i1 %10, label %l_Lean_Grind_CommRing_Poly_degree.exit, label %11

11:                                               ; preds = %lean_obj_tag.exit.i
  %12 = getelementptr inbounds nuw i8, ptr %0, i64 16
  %13 = load ptr, ptr %12, align 8, !tbaa !6
  %14 = tail call ptr @l_Lean_Grind_CommRing_Mon_degree(ptr noundef %13) #6
  br label %l_Lean_Grind_CommRing_Poly_degree.exit

l_Lean_Grind_CommRing_Poly_degree.exit:           ; preds = %lean_obj_tag.exit.i, %11
  %.0.i = phi ptr [ %14, %11 ], [ inttoptr (i64 1 to ptr), %lean_obj_tag.exit.i ]
  br i1 %.not.i.i, label %15, label %lean_dec.exit

15:                                               ; preds = %l_Lean_Grind_CommRing_Poly_degree.exit
  %16 = load i32, ptr %0, align 4, !tbaa !10
  %17 = icmp sgt i32 %16, 1
  br i1 %17, label %18, label %20, !prof !5

18:                                               ; preds = %15
  %19 = add nsw i32 %16, -1
  store i32 %19, ptr %0, align 4, !tbaa !10
  br label %lean_dec.exit

20:                                               ; preds = %15
  %.not.i = icmp eq i32 %16, 0
  br i1 %.not.i, label %lean_dec.exit, label %21

21:                                               ; preds = %20
  tail call void @lean_dec_ref_cold(ptr noundef nonnull %0) #6
  br label %lean_dec.exit

lean_dec.exit:                                    ; preds = %21, %20, %18, %l_Lean_Grind_CommRing_Poly_degree.exit
  ret ptr %.0.i
}